; Function Attrs: nounwind sspstrong uwtable
define dso_local void @qemu_coroutine_yield() #0 {
entry:
  %_now.i.i = alloca %struct.timeval, align 8
  %call = tail call ptr @qemu_coroutine_self() #10
  %caller = getelementptr inbounds nuw i8, ptr %call, i64 16
  %0 = load ptr, ptr %caller, align 8
  call void @llvm.lifetime.start.p0(i64 16, ptr nonnull %_now.i.i)
  %1 = load i32, ptr @trace_events_enabled_count, align 4
  %tobool.i.i = icmp ne i32 %1, 0
  %2 = load i16, ptr @_TRACE_QEMU_COROUTINE_YIELD_DSTATE, align 2
  %tobool4.i.i = icmp ne i16 %2, 0
  %or.cond.i.i = select i1 %tobool.i.i, i1 %tobool4.i.i, i1 false
  br i1 %or.cond.i.i, label %land.lhs.true5.i.i, label %trace_qemu_coroutine_yield.exit

land.lhs.true5.i.i:                               ; preds = %entry
  %3 = load i32, ptr @qemu_loglevel, align 4
  %and.i.i.i = and i32 %3, 32768
  %cmp.i.not.i.i = icmp eq i32 %and.i.i.i, 0
  br i1 %cmp.i.not.i.i, label %trace_qemu_coroutine_yield.exit, label %if.then.i.i

if.then.i.i:                                      ; preds = %land.lhs.true5.i.i
  %4 = load i8, ptr @message_with_timestamp, align 1
  %tobool7.i.i = trunc i8 %4 to i1
  br i1 %tobool7.i.i, label %if.then8.i.i, label %if.else.i.i

if.then8.i.i:                                     ; preds = %if.then.i.i
  %call9.i.i = call i32 @gettimeofday(ptr noundef nonnull %_now.i.i, ptr noundef null) #10
  %call10.i.i = tail call i32 @qemu_get_thread_id() #10
  %5 = load i64, ptr %_now.i.i, align 8
  %tv_usec.i.i = getelementptr inbounds nuw i8, ptr %_now.i.i, i64 8
  %6 = load i64, ptr %tv_usec.i.i, align 8
  tail call void (ptr, ...) @qemu_log(ptr noundef nonnull @.str.9, i32 noundef %call10.i.i, i64 noundef %5, i64 noundef %6, ptr noundef nonnull %call, ptr noundef %0) #10
  br label %trace_qemu_coroutine_yield.exit

if.else.i.i:                                      ; preds = %if.then.i.i
  tail call void (ptr, ...) @qemu_log(ptr noundef nonnull @.str.10, ptr noundef nonnull %call, ptr noundef %0) #10
  br label %trace_qemu_coroutine_yield.exit

trace_qemu_coroutine_yield.exit:                  ; preds = %entry, %land.lhs.true5.i.i, %if.then8.i.i, %if.else.i.i
  call void @llvm.lifetime.end.p0(i64 16, ptr nonnull %_now.i.i)
  %tobool.not = icmp eq ptr %0, null
  br i1 %tobool.not, label %if.then, label %if.end

if.then:                                          ; preds = %trace_qemu_coroutine_yield.exit
  %7 = load ptr, ptr @stderr, align 8
  %8 = tail call i64 @fwrite(ptr nonnull @.str.4, i64 33, i64 1, ptr %7) #11
  tail call void @abort() #12
  unreachable

if.end:                                           ; preds = %trace_qemu_coroutine_yield.exit
  store ptr null, ptr %caller, align 8
  %call3 = tail call i32 @qemu_coroutine_switch(ptr noundef nonnull %call, ptr noundef nonnull %0, i32 noundef 1) #10
  ret void
}